target datalayout = "e-m:e-p270:32:32-p271:32:32-p272:64:64-i64:64-i128:128-f80:128-n8:16:32:64-S128"
target triple = "x86_64-pc-linux-gnu"

%struct.AVFilterGraph = type { ptr, ptr, i32, ptr, i32, i32, ptr, ptr, ptr }
%struct.AVFilterGraphSegment = type { ptr, ptr, i64, ptr }
%struct.AVFilter = type { ptr, ptr, ptr, ptr, ptr, i32 }
%struct.AVFilterChain = type { ptr, i64 }
%struct.AVFilterParams = type { ptr, ptr, ptr, ptr, ptr, i32, ptr, i32 }

@.str.6 = private unnamed_addr constant [22 x i8] c"No such filter: '%s'\0A\00", align 1
@.str.7 = private unnamed_addr constant [14 x i8] c"Parsed_%s_%zu\00", align 1
@.str.8 = private unnamed_addr constant [6 x i8] c"%s@%s\00", align 1
@.str.9 = private unnamed_addr constant [6 x i8] c"scale\00", align 1
@.str.10 = private unnamed_addr constant [2 x i8] c"=\00", align 1
@.str.11 = private unnamed_addr constant [2 x i8] c":\00", align 1

; Function Attrs: nounwind uwtable
define i32 @avfilter_graph_segment_create_filters(ptr noundef %0, i32 noundef %1) #0 {
  %3 = alloca i32, align 4
  %4 = alloca ptr, align 8
  %5 = alloca i32, align 4
  %6 = alloca i64, align 8
  %7 = alloca i32, align 4
  %8 = alloca i64, align 8
  %9 = alloca ptr, align 8
  %10 = alloca i64, align 8
  %11 = alloca ptr, align 8
  %12 = alloca ptr, align 8
  %13 = alloca [64 x i8], align 16
  %14 = alloca i32, align 4
  store ptr %0, ptr %4, align 8, !tbaa !23
  store i32 %1, ptr %5, align 4, !tbaa !22
  call void @llvm.lifetime.start.p0(i64 8, ptr %6) #7
  store i64 0, ptr %6, align 8, !tbaa !43
  %15 = load i32, ptr %5, align 4, !tbaa !22
  %16 = icmp ne i32 %15, 0
  br i1 %16, label %17, label %18

17:                                               ; preds = %2
  store i32 -38, ptr %3, align 4
  store i32 1, ptr %7, align 4
  br label %193

18:                                               ; preds = %2
  %19 = load ptr, ptr %4, align 8, !tbaa !23
  %20 = getelementptr inbounds nuw %struct.AVFilterGraphSegment, ptr %19, i32 0, i32 3
  %21 = load ptr, ptr %20, align 8, !tbaa !75
  %22 = icmp ne ptr %21, null
  br i1 %22, label %23, label %44

23:                                               ; preds = %18
  %24 = load ptr, ptr %4, align 8, !tbaa !23
  %25 = getelementptr inbounds nuw %struct.AVFilterGraphSegment, ptr %24, i32 0, i32 0
  %26 = load ptr, ptr %25, align 8, !tbaa !34
  %27 = getelementptr inbounds nuw %struct.AVFilterGraph, ptr %26, i32 0, i32 3
  call void @av_freep(ptr noundef %27)
  %28 = load ptr, ptr %4, align 8, !tbaa !23
  %29 = getelementptr inbounds nuw %struct.AVFilterGraphSegment, ptr %28, i32 0, i32 3
  %30 = load ptr, ptr %29, align 8, !tbaa !75
  %31 = call noalias ptr @av_strdup(ptr noundef %30)
  %32 = load ptr, ptr %4, align 8, !tbaa !23
  %33 = getelementptr inbounds nuw %struct.AVFilterGraphSegment, ptr %32, i32 0, i32 0
  %34 = load ptr, ptr %33, align 8, !tbaa !34
  %35 = getelementptr inbounds nuw %struct.AVFilterGraph, ptr %34, i32 0, i32 3
  store ptr %31, ptr %35, align 8, !tbaa !76
  %36 = load ptr, ptr %4, align 8, !tbaa !23
  %37 = getelementptr inbounds nuw %struct.AVFilterGraphSegment, ptr %36, i32 0, i32 0
  %38 = load ptr, ptr %37, align 8, !tbaa !34
  %39 = getelementptr inbounds nuw %struct.AVFilterGraph, ptr %38, i32 0, i32 3
  %40 = load ptr, ptr %39, align 8, !tbaa !76
  %41 = icmp ne ptr %40, null
  br i1 %41, label %43, label %42

42:                                               ; preds = %23
  store i32 -12, ptr %3, align 4
  store i32 1, ptr %7, align 4
  br label %193

43:                                               ; preds = %23
  br label %44

44:                                               ; preds = %43, %18
  call void @llvm.lifetime.start.p0(i64 8, ptr %8) #7
  store i64 0, ptr %8, align 8, !tbaa !43
  br label %45

45:                                               ; preds = %187, %44
  %46 = load i64, ptr %8, align 8, !tbaa !43
  %47 = load ptr, ptr %4, align 8, !tbaa !23
  %48 = getelementptr inbounds nuw %struct.AVFilterGraphSegment, ptr %47, i32 0, i32 2
  %49 = load i64, ptr %48, align 8, !tbaa !41
  %50 = icmp ult i64 %46, %49
  br i1 %50, label %52, label %51

51:                                               ; preds = %45
  store i32 2, ptr %7, align 4
  br label %190

52:                                               ; preds = %45
  call void @llvm.lifetime.start.p0(i64 8, ptr %9) #7
  %53 = load ptr, ptr %4, align 8, !tbaa !23
  %54 = getelementptr inbounds nuw %struct.AVFilterGraphSegment, ptr %53, i32 0, i32 1
  %55 = load ptr, ptr %54, align 8, !tbaa !44
  %56 = load i64, ptr %8, align 8, !tbaa !43
  %57 = getelementptr inbounds nuw ptr, ptr %55, i64 %56
  %58 = load ptr, ptr %57, align 8, !tbaa !39
  store ptr %58, ptr %9, align 8, !tbaa !39
  call void @llvm.lifetime.start.p0(i64 8, ptr %10) #7
  store i64 0, ptr %10, align 8, !tbaa !43
  br label %59

59:                                               ; preds = %178, %52
  %60 = load i64, ptr %10, align 8, !tbaa !43
  %61 = load ptr, ptr %9, align 8, !tbaa !39
  %62 = getelementptr inbounds nuw %struct.AVFilterChain, ptr %61, i32 0, i32 1
  %63 = load i64, ptr %62, align 8, !tbaa !65
  %64 = icmp ult i64 %60, %63
  br i1 %64, label %66, label %65

65:                                               ; preds = %59
  store i32 5, ptr %7, align 4
  br label %181

66:                                               ; preds = %59
  call void @llvm.lifetime.start.p0(i64 8, ptr %11) #7
  %67 = load ptr, ptr %9, align 8, !tbaa !39
  %68 = getelementptr inbounds nuw %struct.AVFilterChain, ptr %67, i32 0, i32 0
  %69 = load ptr, ptr %68, align 8, !tbaa !68
  %70 = load i64, ptr %10, align 8, !tbaa !43
  %71 = getelementptr inbounds nuw ptr, ptr %69, i64 %70
  %72 = load ptr, ptr %71, align 8, !tbaa !72
  store ptr %72, ptr %11, align 8, !tbaa !72
  call void @llvm.lifetime.start.p0(i64 8, ptr %12) #7
  %73 = load ptr, ptr %11, align 8, !tbaa !72
  %74 = getelementptr inbounds nuw %struct.AVFilterParams, ptr %73, i32 0, i32 1
  %75 = load ptr, ptr %74, align 8, !tbaa !77
  %76 = call ptr @avfilter_get_by_name(ptr noundef %75)
  store ptr %76, ptr %12, align 8, !tbaa !81
  call void @llvm.lifetime.start.p0(i64 64, ptr %13) #7
  %77 = load ptr, ptr %11, align 8, !tbaa !72
  %78 = getelementptr inbounds nuw %struct.AVFilterParams, ptr %77, i32 0, i32 0
  %79 = load ptr, ptr %78, align 8, !tbaa !82
  %80 = icmp ne ptr %79, null
  br i1 %80, label %86, label %81

81:                                               ; preds = %66
  %82 = load ptr, ptr %11, align 8, !tbaa !72
  %83 = getelementptr inbounds nuw %struct.AVFilterParams, ptr %82, i32 0, i32 1
  %84 = load ptr, ptr %83, align 8, !tbaa !77
  %85 = icmp ne ptr %84, null
  br i1 %85, label %87, label %86

86:                                               ; preds = %81, %66
  store i32 7, ptr %7, align 4
  br label %175

87:                                               ; preds = %81
  %88 = load ptr, ptr %12, align 8, !tbaa !81
  %89 = icmp ne ptr %88, null
  br i1 %89, label %97, label %90

90:                                               ; preds = %87
  %91 = load ptr, ptr %4, align 8, !tbaa !23
  %92 = getelementptr inbounds nuw %struct.AVFilterGraphSegment, ptr %91, i32 0, i32 0
  %93 = load ptr, ptr %92, align 8, !tbaa !34
  %94 = load ptr, ptr %11, align 8, !tbaa !72
  %95 = getelementptr inbounds nuw %struct.AVFilterParams, ptr %94, i32 0, i32 1
  %96 = load ptr, ptr %95, align 8, !tbaa !77
  call void (ptr, i32, ptr, ...) @av_log(ptr noundef %93, i32 noundef 16, ptr noundef @.str.6, ptr noundef %96)
  store i32 -1279870712, ptr %3, align 4
  store i32 1, ptr %7, align 4
  br label %175

97:                                               ; preds = %87
  %98 = load ptr, ptr %11, align 8, !tbaa !72
  %99 = getelementptr inbounds nuw %struct.AVFilterParams, ptr %98, i32 0, i32 2
  %100 = load ptr, ptr %99, align 8, !tbaa !83
  %101 = icmp ne ptr %100, null
  br i1 %101, label %109, label %102

102:                                              ; preds = %97
  %103 = getelementptr inbounds [64 x i8], ptr %13, i64 0, i64 0
  %104 = load ptr, ptr %12, align 8, !tbaa !81
  %105 = getelementptr inbounds nuw %struct.AVFilter, ptr %104, i32 0, i32 0
  %106 = load ptr, ptr %105, align 8, !tbaa !57
  %107 = load i64, ptr %6, align 8, !tbaa !43
  %108 = call i32 (ptr, i64, ptr, ...) @snprintf(ptr noundef %103, i64 noundef 64, ptr noundef @.str.7, ptr noundef %106, i64 noundef %107) #7
  br label %118

109:                                              ; preds = %97
  %110 = getelementptr inbounds [64 x i8], ptr %13, i64 0, i64 0
  %111 = load ptr, ptr %12, align 8, !tbaa !81
  %112 = getelementptr inbounds nuw %struct.AVFilter, ptr %111, i32 0, i32 0
  %113 = load ptr, ptr %112, align 8, !tbaa !57
  %114 = load ptr, ptr %11, align 8, !tbaa !72
  %115 = getelementptr inbounds nuw %struct.AVFilterParams, ptr %114, i32 0, i32 2
  %116 = load ptr, ptr %115, align 8, !tbaa !83
  %117 = call i32 (ptr, i64, ptr, ...) @snprintf(ptr noundef %110, i64 noundef 64, ptr noundef @.str.8, ptr noundef %113, ptr noundef %116) #7
  br label %118

118:                                              ; preds = %109, %102
  %119 = load ptr, ptr %4, align 8, !tbaa !23
  %120 = getelementptr inbounds nuw %struct.AVFilterGraphSegment, ptr %119, i32 0, i32 0
  %121 = load ptr, ptr %120, align 8, !tbaa !34
  %122 = load ptr, ptr %12, align 8, !tbaa !81
  %123 = getelementptr inbounds [64 x i8], ptr %13, i64 0, i64 0
  %124 = call ptr @avfilter_graph_alloc_filter(ptr noundef %121, ptr noundef %122, ptr noundef %123)
  %125 = load ptr, ptr %11, align 8, !tbaa !72
  %126 = getelementptr inbounds nuw %struct.AVFilterParams, ptr %125, i32 0, i32 0
  store ptr %124, ptr %126, align 8, !tbaa !82
  %127 = load ptr, ptr %11, align 8, !tbaa !72
  %128 = getelementptr inbounds nuw %struct.AVFilterParams, ptr %127, i32 0, i32 0
  %129 = load ptr, ptr %128, align 8, !tbaa !82
  %130 = icmp ne ptr %129, null
  br i1 %130, label %132, label %131

131:                                              ; preds = %118
  store i32 -12, ptr %3, align 4
  store i32 1, ptr %7, align 4
  br label %175

132:                                              ; preds = %118
  %133 = load ptr, ptr %12, align 8, !tbaa !81
  %134 = getelementptr inbounds nuw %struct.AVFilter, ptr %133, i32 0, i32 0
  %135 = load ptr, ptr %134, align 8, !tbaa !57
  %136 = call i32 @strcmp(ptr noundef %135, ptr noundef @.str.9) #8
  %137 = icmp ne i32 %136, 0
  br i1 %137, label %168, label %138

138:                                              ; preds = %132
  %139 = load ptr, ptr %4, align 8, !tbaa !23
  %140 = getelementptr inbounds nuw %struct.AVFilterGraphSegment, ptr %139, i32 0, i32 0
  %141 = load ptr, ptr %140, align 8, !tbaa !34
  %142 = getelementptr inbounds nuw %struct.AVFilterGraph, ptr %141, i32 0, i32 3
  %143 = load ptr, ptr %142, align 8, !tbaa !76
  %144 = icmp ne ptr %143, null
  br i1 %144, label %145, label %168

145:                                              ; preds = %138
  call void @llvm.lifetime.start.p0(i64 4, ptr %14) #7
  %146 = load ptr, ptr %11, align 8, !tbaa !72
  %147 = getelementptr inbounds nuw %struct.AVFilterParams, ptr %146, i32 0, i32 0
  %148 = load ptr, ptr %147, align 8, !tbaa !82
  %149 = load ptr, ptr %4, align 8, !tbaa !23
  %150 = getelementptr inbounds nuw %struct.AVFilterGraphSegment, ptr %149, i32 0, i32 0
  %151 = load ptr, ptr %150, align 8, !tbaa !34
  %152 = getelementptr inbounds nuw %struct.AVFilterGraph, ptr %151, i32 0, i32 3
  %153 = load ptr, ptr %152, align 8, !tbaa !76
  %154 = call i32 @av_set_options_string(ptr noundef %148, ptr noundef %153, ptr noundef @.str.10, ptr noundef @.str.11)
  store i32 %154, ptr %14, align 4, !tbaa !22
  %155 = load i32, ptr %14, align 4, !tbaa !22
  %156 = icmp slt i32 %155, 0
  br i1 %156, label %157, label %164

157:                                              ; preds = %145
  %158 = load ptr, ptr %11, align 8, !tbaa !72
  %159 = getelementptr inbounds nuw %struct.AVFilterParams, ptr %158, i32 0, i32 0
  %160 = load ptr, ptr %159, align 8, !tbaa !82
  call void @avfilter_free(ptr noundef %160)
  %161 = load ptr, ptr %11, align 8, !tbaa !72
  %162 = getelementptr inbounds nuw %struct.AVFilterParams, ptr %161, i32 0, i32 0
  store ptr null, ptr %162, align 8, !tbaa !82
  %163 = load i32, ptr %14, align 4, !tbaa !22
  store i32 %163, ptr %3, align 4
  store i32 1, ptr %7, align 4
  br label %165

164:                                              ; preds = %145
  store i32 0, ptr %7, align 4
  br label %165

165:                                              ; preds = %164, %157
  call void @llvm.lifetime.end.p0(i64 4, ptr %14) #7
  %166 = load i32, ptr %7, align 4
  switch i32 %166, label %175 [
    i32 0, label %167
  ]

167:                                              ; preds = %165
  br label %168

168:                                              ; preds = %167, %138, %132
  %169 = load ptr, ptr %11, align 8, !tbaa !72
  %170 = getelementptr inbounds nuw %struct.AVFilterParams, ptr %169, i32 0, i32 1
  call void @av_freep(ptr noundef %170)
  %171 = load ptr, ptr %11, align 8, !tbaa !72
  %172 = getelementptr inbounds nuw %struct.AVFilterParams, ptr %171, i32 0, i32 2
  call void @av_freep(ptr noundef %172)
  %173 = load i64, ptr %6, align 8, !tbaa !43
  %174 = add i64 %173, 1
  store i64 %174, ptr %6, align 8, !tbaa !43
  store i32 0, ptr %7, align 4
  br label %175

175:                                              ; preds = %168, %165, %131, %90, %86
  call void @llvm.lifetime.end.p0(i64 64, ptr %13) #7
  call void @llvm.lifetime.end.p0(i64 8, ptr %12) #7
  call void @llvm.lifetime.end.p0(i64 8, ptr %11) #7
  %176 = load i32, ptr %7, align 4
  switch i32 %176, label %181 [
    i32 0, label %177
    i32 7, label %178
  ]

177:                                              ; preds = %175
  br label %178

178:                                              ; preds = %177, %175
  %179 = load i64, ptr %10, align 8, !tbaa !43
  %180 = add i64 %179, 1
  store i64 %180, ptr %10, align 8, !tbaa !43
  br label %59, !llvm.loop !84

181:                                              ; preds = %175, %65
  call void @llvm.lifetime.end.p0(i64 8, ptr %10) #7
  %182 = load i32, ptr %7, align 4
  switch i32 %182, label %184 [
    i32 5, label %183
  ]

183:                                              ; preds = %181
  store i32 0, ptr %7, align 4
  br label %184

184:                                              ; preds = %183, %181
  call void @llvm.lifetime.end.p0(i64 8, ptr %9) #7
  %185 = load i32, ptr %7, align 4
  switch i32 %185, label %190 [
    i32 0, label %186
  ]

186:                                              ; preds = %184
  br label %187

187:                                              ; preds = %186
  %188 = load i64, ptr %8, align 8, !tbaa !43
  %189 = add i64 %188, 1
  store i64 %189, ptr %8, align 8, !tbaa !43
  br label %45, !llvm.loop !85

190:                                              ; preds = %184, %51
  call void @llvm.lifetime.end.p0(i64 8, ptr %8) #7
  %191 = load i32, ptr %7, align 4
  switch i32 %191, label %193 [
    i32 2, label %192
  ]

192:                                              ; preds = %190
  store i32 0, ptr %3, align 4
  store i32 1, ptr %7, align 4
  br label %193

193:                                              ; preds = %192, %190, %42, %17
  call void @llvm.lifetime.end.p0(i64 8, ptr %6) #7
  %194 = load i32, ptr %3, align 4
  ret i32 %194
}