; Function Attrs: nounwind uwtable
define range(i32 -2147483648, 1) i32 @avfilter_graph_segment_create_filters(ptr noundef readonly captures(none) %0, i32 noundef %1) local_unnamed_addr #0 {
  %3 = alloca [64 x i8], align 16
  %.not = icmp eq i32 %1, 0
  br i1 %.not, label %4, label %.loopexit

4:                                                ; preds = %2
  %5 = getelementptr inbounds nuw i8, ptr %0, i64 24
  %6 = load ptr, ptr %5, align 8, !tbaa !89
  %.not66 = icmp eq ptr %6, null
  br i1 %.not66, label %14, label %7

7:                                                ; preds = %4
  %8 = load ptr, ptr %0, align 8, !tbaa !27
  %9 = getelementptr inbounds nuw i8, ptr %8, i64 24
  tail call void @av_freep(ptr noundef nonnull %9) #7
  %10 = load ptr, ptr %5, align 8, !tbaa !89
  %11 = tail call noalias ptr @av_strdup(ptr noundef %10) #7
  %12 = load ptr, ptr %0, align 8, !tbaa !27
  %13 = getelementptr inbounds nuw i8, ptr %12, i64 24
  store ptr %11, ptr %13, align 8, !tbaa !90
  %.not67 = icmp eq ptr %11, null
  br i1 %.not67, label %.loopexit, label %14

14:                                               ; preds = %7, %4
  %15 = getelementptr inbounds nuw i8, ptr %0, i64 16
  %16 = load i64, ptr %15, align 8, !tbaa !34
  %.not7597.not = icmp eq i64 %16, 0
  br i1 %.not7597.not, label %.loopexit, label %.lr.ph101

.lr.ph101:                                        ; preds = %14
  %17 = getelementptr inbounds nuw i8, ptr %0, i64 8
  br label %18

18:                                               ; preds = %.lr.ph101, %._crit_edge
  %19 = phi i64 [ %16, %.lr.ph101 ], [ %65, %._crit_edge ]
  %.05099 = phi i64 [ 0, %.lr.ph101 ], [ %.151.lcssa, %._crit_edge ]
  %.05998 = phi i64 [ 0, %.lr.ph101 ], [ %66, %._crit_edge ]
  %20 = load ptr, ptr %17, align 8, !tbaa !52
  %21 = getelementptr inbounds nuw ptr, ptr %20, i64 %.05998
  %22 = load ptr, ptr %21, align 8, !tbaa !35
  %23 = getelementptr inbounds nuw i8, ptr %22, i64 8
  %24 = load i64, ptr %23, align 8, !tbaa !47
  %.not102 = icmp eq i64 %24, 0
  br i1 %.not102, label %._crit_edge, label %.lr.ph

.lr.ph:                                           ; preds = %18, %61
  %.15196 = phi i64 [ %.353, %61 ], [ %.05099, %18 ]
  %.05895 = phi i64 [ %62, %61 ], [ 0, %18 ]
  %25 = load ptr, ptr %22, align 8, !tbaa !50
  %26 = getelementptr inbounds nuw ptr, ptr %25, i64 %.05895
  %27 = load ptr, ptr %26, align 8, !tbaa !37
  %28 = getelementptr inbounds nuw i8, ptr %27, i64 8
  %29 = load ptr, ptr %28, align 8, !tbaa !39
  %30 = call ptr @avfilter_get_by_name(ptr noundef %29) #7
  call void @llvm.lifetime.start.p0(i64 64, ptr nonnull %3) #7
  %31 = load ptr, ptr %27, align 8, !tbaa !53
  %.not68 = icmp eq ptr %31, null
  br i1 %.not68, label %32, label %61

32:                                               ; preds = %.lr.ph
  %33 = load ptr, ptr %28, align 8, !tbaa !39
  %.not69 = icmp eq ptr %33, null
  br i1 %.not69, label %61, label %34

34:                                               ; preds = %32
  %.not70 = icmp eq ptr %30, null
  br i1 %.not70, label %35, label %37

35:                                               ; preds = %34
  %36 = load ptr, ptr %0, align 8, !tbaa !27
  call void (ptr, i32, ptr, ...) @av_log(ptr noundef %36, i32 noundef 16, ptr noundef nonnull @.str.6, ptr noundef nonnull %33) #7
  br label %.thread82

37:                                               ; preds = %34
  %38 = getelementptr inbounds nuw i8, ptr %27, i64 16
  %39 = load ptr, ptr %38, align 8, !tbaa !43
  %.not71 = icmp eq ptr %39, null
  %40 = load ptr, ptr %30, align 8, !tbaa !83
  br i1 %.not71, label %41, label %43

41:                                               ; preds = %37
  %42 = call i32 (ptr, i64, ptr, ...) @snprintf(ptr noundef nonnull dereferenceable(1) %3, i64 noundef 64, ptr noundef nonnull @.str.7, ptr noundef %40, i64 noundef %.15196) #7
  br label %45

43:                                               ; preds = %37
  %44 = call i32 (ptr, i64, ptr, ...) @snprintf(ptr noundef nonnull dereferenceable(1) %3, i64 noundef 64, ptr noundef nonnull @.str.8, ptr noundef %40, ptr noundef nonnull %39) #7
  br label %45

45:                                               ; preds = %43, %41
  %46 = load ptr, ptr %0, align 8, !tbaa !27
  %47 = call ptr @avfilter_graph_alloc_filter(ptr noundef %46, ptr noundef nonnull %30, ptr noundef nonnull %3) #7
  store ptr %47, ptr %27, align 8, !tbaa !53
  %.not72 = icmp eq ptr %47, null
  br i1 %.not72, label %.thread82, label %48

48:                                               ; preds = %45
  %49 = load ptr, ptr %30, align 8, !tbaa !83
  %50 = call i32 @strcmp(ptr noundef nonnull dereferenceable(1) %49, ptr noundef nonnull dereferenceable(6) @.str.9) #8
  %.not73 = icmp eq i32 %50, 0
  br i1 %.not73, label %51, label %.thread

51:                                               ; preds = %48
  %52 = load ptr, ptr %0, align 8, !tbaa !27
  %53 = getelementptr inbounds nuw i8, ptr %52, i64 24
  %54 = load ptr, ptr %53, align 8, !tbaa !90
  %.not74 = icmp eq ptr %54, null
  br i1 %.not74, label %.thread, label %55

55:                                               ; preds = %51
  %56 = call i32 @av_set_options_string(ptr noundef nonnull %47, ptr noundef nonnull %54, ptr noundef nonnull @.str.10, ptr noundef nonnull @.str.11) #7
  %57 = icmp sgt i32 %56, -1
  br i1 %57, label %.thread, label %58

58:                                               ; preds = %55
  %59 = load ptr, ptr %27, align 8, !tbaa !53
  call void @avfilter_free(ptr noundef %59) #7
  store ptr null, ptr %27, align 8, !tbaa !53
  br label %.thread82

.thread:                                          ; preds = %55, %51, %48
  call void @av_freep(ptr noundef nonnull %28) #7
  call void @av_freep(ptr noundef nonnull %38) #7
  %60 = add i64 %.15196, 1
  br label %61

.thread82:                                        ; preds = %45, %35, %58
  %.5.ph = phi i32 [ -1279870712, %35 ], [ %56, %58 ], [ -12, %45 ]
  call void @llvm.lifetime.end.p0(i64 64, ptr nonnull %3) #7
  br label %.loopexit

61:                                               ; preds = %.thread, %32, %.lr.ph
  %.353 = phi i64 [ %60, %.thread ], [ %.15196, %32 ], [ %.15196, %.lr.ph ]
  call void @llvm.lifetime.end.p0(i64 64, ptr nonnull %3) #7
  %62 = add nuw i64 %.05895, 1
  %63 = load i64, ptr %23, align 8, !tbaa !47
  %64 = icmp ult i64 %62, %63
  br i1 %64, label %.lr.ph, label %._crit_edge.loopexit, !llvm.loop !91

._crit_edge.loopexit:                             ; preds = %61
  %.pre = load i64, ptr %15, align 8, !tbaa !34
  br label %._crit_edge

._crit_edge:                                      ; preds = %._crit_edge.loopexit, %18
  %65 = phi i64 [ %19, %18 ], [ %.pre, %._crit_edge.loopexit ]
  %.151.lcssa = phi i64 [ %.05099, %18 ], [ %.353, %._crit_edge.loopexit ]
  %66 = add nuw i64 %.05998, 1
  %.not75 = icmp ult i64 %66, %65
  br i1 %.not75, label %18, label %.loopexit, !llvm.loop !92

.loopexit:                                        ; preds = %._crit_edge, %14, %.thread82, %7, %2
  %.0 = phi i32 [ -38, %2 ], [ -12, %7 ], [ %.5.ph, %.thread82 ], [ 0, %14 ], [ 0, %._crit_edge ]
  ret i32 %.0
}